target datalayout = "e-m:e-p270:32:32-p271:32:32-p272:64:64-i64:64-i128:128-f80:128-n8:16:32:64-S128"
target triple = "x86_64-pc-linux-gnu"

%"class.gmx::SimdFloat" = type { <8 x float> }
%"struct.gmx::NbnxmPairlistCpuWork" = type { %"struct.gmx::gmx_cache_protect_t", %"struct.gmx::NbnxmPairlistCpuWork::IClusterData", %"class.std::vector.5", i32, i32, %"struct.gmx::gmx_cache_protect_t" }
%"struct.gmx::NbnxmPairlistCpuWork::IClusterData" = type { %"class.std::vector", %"class.std::vector.0", %"class.std::vector.2" }
%"class.std::vector" = type { %"struct.std::_Vector_base" }
%"struct.std::_Vector_base" = type { %"struct.std::_Vector_base<gmx::BoundingBox, gmx::Allocator<gmx::BoundingBox, gmx::AlignedAllocationPolicy>>::_Vector_impl" }
%"struct.std::_Vector_base<gmx::BoundingBox, gmx::Allocator<gmx::BoundingBox, gmx::AlignedAllocationPolicy>>::_Vector_impl" = type { %"struct.std::_Vector_base<gmx::BoundingBox, gmx::Allocator<gmx::BoundingBox, gmx::AlignedAllocationPolicy>>::_Vector_impl_data" }
%"struct.std::_Vector_base<gmx::BoundingBox, gmx::Allocator<gmx::BoundingBox, gmx::AlignedAllocationPolicy>>::_Vector_impl_data" = type { ptr, ptr, ptr }
%"class.std::vector.0" = type { %"struct.std::_Vector_base.1" }
%"struct.std::_Vector_base.1" = type { %"struct.std::_Vector_base<float, std::allocator<float>>::_Vector_impl" }
%"struct.std::_Vector_base<float, std::allocator<float>>::_Vector_impl" = type { %"struct.std::_Vector_base<float, std::allocator<float>>::_Vector_impl_data" }
%"struct.std::_Vector_base<float, std::allocator<float>>::_Vector_impl_data" = type { ptr, ptr, ptr }
%"class.std::vector.2" = type { %"struct.std::_Vector_base.3" }
%"struct.std::_Vector_base.3" = type { %"struct.std::_Vector_base<float, gmx::Allocator<float, gmx::AlignedAllocationPolicy>>::_Vector_impl" }
%"struct.std::_Vector_base<float, gmx::Allocator<float, gmx::AlignedAllocationPolicy>>::_Vector_impl" = type { %"struct.std::_Vector_base<float, gmx::Allocator<float, gmx::AlignedAllocationPolicy>>::_Vector_impl_data" }
%"struct.std::_Vector_base<float, gmx::Allocator<float, gmx::AlignedAllocationPolicy>>::_Vector_impl_data" = type { ptr, ptr, ptr }
%"class.std::vector.5" = type { %"struct.std::_Vector_base.6" }
%"struct.std::_Vector_base.6" = type { %"struct.std::_Vector_base<gmx::nbnxn_cj_t, std::allocator<gmx::nbnxn_cj_t>>::_Vector_impl" }
%"struct.std::_Vector_base<gmx::nbnxn_cj_t, std::allocator<gmx::nbnxn_cj_t>>::_Vector_impl" = type { %"struct.std::_Vector_base<gmx::nbnxn_cj_t, std::allocator<gmx::nbnxn_cj_t>>::_Vector_impl_data" }
%"struct.std::_Vector_base<gmx::nbnxn_cj_t, std::allocator<gmx::nbnxn_cj_t>>::_Vector_impl_data" = type { ptr, ptr, ptr }
%"struct.gmx::gmx_cache_protect_t" = type { [16 x i32] }
%"class.gmx::BasicVector" = type { [3 x float] }

; Function Attrs: alwaysinline mustprogress nounwind uwtable
define internal noundef <8 x float> @_ZL13_mm256_set_psffffffff(float noundef %0, float noundef %1, float noundef %2, float noundef %3, float noundef %4, float noundef %5, float noundef %6, float noundef %7) #6 {
  %9 = alloca float, align 4
  %10 = alloca float, align 4
  %11 = alloca float, align 4
  %12 = alloca float, align 4
  %13 = alloca float, align 4
  %14 = alloca float, align 4
  %15 = alloca float, align 4
  %16 = alloca float, align 4
  %17 = alloca <8 x float>, align 32
  store float %0, ptr %9, align 4, !tbaa !15
  store float %1, ptr %10, align 4, !tbaa !15
  store float %2, ptr %11, align 4, !tbaa !15
  store float %3, ptr %12, align 4, !tbaa !15
  store float %4, ptr %13, align 4, !tbaa !15
  store float %5, ptr %14, align 4, !tbaa !15
  store float %6, ptr %15, align 4, !tbaa !15
  store float %7, ptr %16, align 4, !tbaa !15
  %18 = load float, ptr %16, align 4, !tbaa !15
  %19 = insertelement <8 x float> poison, float %18, i32 0
  %20 = load float, ptr %15, align 4, !tbaa !15
  %21 = insertelement <8 x float> %19, float %20, i32 1
  %22 = load float, ptr %14, align 4, !tbaa !15
  %23 = insertelement <8 x float> %21, float %22, i32 2
  %24 = load float, ptr %13, align 4, !tbaa !15
  %25 = insertelement <8 x float> %23, float %24, i32 3
  %26 = load float, ptr %12, align 4, !tbaa !15
  %27 = insertelement <8 x float> %25, float %26, i32 4
  %28 = load float, ptr %11, align 4, !tbaa !15
  %29 = insertelement <8 x float> %27, float %28, i32 5
  %30 = load float, ptr %10, align 4, !tbaa !15
  %31 = insertelement <8 x float> %29, float %30, i32 6
  %32 = load float, ptr %9, align 4, !tbaa !15
  %33 = insertelement <8 x float> %31, float %32, i32 7
  store <8 x float> %33, ptr %17, align 32, !tbaa !24
  %34 = load <8 x float>, ptr %17, align 32, !tbaa !24
  ret <8 x float> %34
}

; Function Attrs: alwaysinline mustprogress nounwind uwtable
define internal void @_ZL15_mm256_store_psPfDv8_f(ptr noundef %0, <8 x float> noundef %1) #6 {
  %3 = alloca ptr, align 8
  %4 = alloca <8 x float>, align 32
  store ptr %0, ptr %3, align 8, !tbaa !11
  store <8 x float> %1, ptr %4, align 32, !tbaa !24
  %5 = load <8 x float>, ptr %4, align 32, !tbaa !24
  %6 = load ptr, ptr %3, align 8, !tbaa !11
  store <8 x float> %5, ptr %6, align 32, !tbaa !24
  ret void
}

; Function Attrs: alwaysinline mustprogress uwtable
define internal noundef <8 x float> @_ZL14_mm256_set1_psf(float noundef %0) #7 {
  %2 = alloca float, align 4
  store float %0, ptr %2, align 4, !tbaa !15
  %3 = load float, ptr %2, align 4, !tbaa !15
  %4 = load float, ptr %2, align 4, !tbaa !15
  %5 = load float, ptr %2, align 4, !tbaa !15
  %6 = load float, ptr %2, align 4, !tbaa !15
  %7 = load float, ptr %2, align 4, !tbaa !15
  %8 = load float, ptr %2, align 4, !tbaa !15
  %9 = load float, ptr %2, align 4, !tbaa !15
  %10 = load float, ptr %2, align 4, !tbaa !15
  %11 = call noundef <8 x float> @_ZL13_mm256_set_psffffffff(float noundef %3, float noundef %4, float noundef %5, float noundef %6, float noundef %7, float noundef %8, float noundef %9, float noundef %10)
  ret <8 x float> %11
}

; Function Attrs: mustprogress nounwind uwtable
define linkonce_odr noundef ptr @_ZNKSt6vectorIfN3gmx9AllocatorIfNS0_23AlignedAllocationPolicyEEEE11_M_data_ptrIfEEPT_S7_(ptr noundef nonnull align 8 dereferenceable(24) %0, ptr noundef %1) #3 comdat align 2 {
  %3 = alloca ptr, align 8
  %4 = alloca ptr, align 8
  store ptr %0, ptr %3, align 8, !tbaa !20
  store ptr %1, ptr %4, align 8, !tbaa !11
  %5 = load ptr, ptr %4, align 8, !tbaa !11
  ret ptr %5
}

; Function Attrs: inlinehint mustprogress uwtable
define internal x86_vectorcallcc void @_ZN3gmxL5storeEPfNS_9SimdFloatE(ptr noundef %0, <8 x float> %1) #1 {
  %3 = alloca %"class.gmx::SimdFloat", align 32
  %4 = alloca ptr, align 8
  %5 = getelementptr inbounds nuw %"class.gmx::SimdFloat", ptr %3, i32 0, i32 0
  store <8 x float> %1, ptr %5, align 32
  store ptr %0, ptr %4, align 8, !tbaa !11
  %6 = load ptr, ptr %4, align 8, !tbaa !11
  %7 = getelementptr inbounds nuw %"class.gmx::SimdFloat", ptr %3, i32 0, i32 0
  %8 = load <8 x float>, ptr %7, align 32, !tbaa !24
  call void @_ZL15_mm256_store_psPfDv8_f(ptr noundef %6, <8 x float> noundef %8)
  ret void
}

; Function Attrs: mustprogress uwtable
define linkonce_odr void @_ZN3gmx9SimdFloatC2Ef(ptr noundef nonnull align 32 dereferenceable(32) %0, float noundef %1) unnamed_addr #5 comdat align 2 {
  %3 = alloca ptr, align 8
  %4 = alloca float, align 4
  store ptr %0, ptr %3, align 8, !tbaa !25
  store float %1, ptr %4, align 4, !tbaa !15
  %5 = load ptr, ptr %3, align 8
  %6 = getelementptr inbounds nuw %"class.gmx::SimdFloat", ptr %5, i32 0, i32 0
  %7 = load float, ptr %4, align 4, !tbaa !15
  %8 = call noundef <8 x float> @_ZL14_mm256_set1_psf(float noundef %7)
  store <8 x float> %8, ptr %6, align 32, !tbaa !24
  ret void
}

; Function Attrs: mustprogress nounwind uwtable
define linkonce_odr noundef float @_ZNK3gmx11BasicVectorIfEixEi(ptr noundef nonnull align 4 dereferenceable(12) %0, i32 noundef %1) #3 comdat align 2 {
  %3 = alloca ptr, align 8
  %4 = alloca i32, align 4
  store ptr %0, ptr %3, align 8, !tbaa !8
  store i32 %1, ptr %4, align 4, !tbaa !4
  %5 = load ptr, ptr %3, align 8
  %6 = getelementptr inbounds nuw %"class.gmx::BasicVector", ptr %5, i32 0, i32 0
  %7 = load i32, ptr %4, align 4, !tbaa !4
  %8 = sext i32 %7 to i64
  %9 = getelementptr inbounds [3 x float], ptr %6, i64 0, i64 %8
  %10 = load float, ptr %9, align 4, !tbaa !15
  ret float %10
}

; Function Attrs: inlinehint mustprogress nounwind uwtable
define internal noundef i32 @_ZN3gmxL12xIndexFromCiILNS_25ClusterDistanceKernelTypeE1EEEii(i32 noundef %0) #4 {
  %2 = alloca i32, align 4
  %3 = alloca i32, align 4
  %4 = alloca i32, align 4
  %5 = alloca i32, align 4
  store i32 %0, ptr %2, align 4, !tbaa !4
  call void @llvm.lifetime.start.p0(i64 4, ptr %3) #19
  store i32 4, ptr %3, align 4, !tbaa !4
  call void @llvm.lifetime.start.p0(i64 4, ptr %4) #19
  store i32 8, ptr %4, align 4, !tbaa !4
  call void @llvm.lifetime.start.p0(i64 4, ptr %5) #19
  store i32 8, ptr %5, align 4, !tbaa !4
  %6 = load i32, ptr %2, align 4, !tbaa !4
  %7 = ashr i32 %6, 1
  %8 = mul nsw i32 %7, 3
  %9 = mul nsw i32 %8, 8
  %10 = load i32, ptr %2, align 4, !tbaa !4
  %11 = and i32 %10, 1
  %12 = mul nsw i32 %11, 4
  %13 = add nsw i32 %9, %12
  call void @llvm.lifetime.end.p0(i64 4, ptr %5) #19
  call void @llvm.lifetime.end.p0(i64 4, ptr %4) #19
  call void @llvm.lifetime.end.p0(i64 4, ptr %3) #19
  ret i32 %13
}

; Function Attrs: mustprogress nounwind uwtable
define linkonce_odr noundef ptr @_ZNSt6vectorIfN3gmx9AllocatorIfNS0_23AlignedAllocationPolicyEEEE4dataEv(ptr noundef nonnull align 8 dereferenceable(24) %0) #3 comdat align 2 {
  %2 = alloca ptr, align 8
  store ptr %0, ptr %2, align 8, !tbaa !20
  %3 = load ptr, ptr %2, align 8
  %4 = getelementptr inbounds nuw %"struct.std::_Vector_base.3", ptr %3, i32 0, i32 0
  %5 = getelementptr inbounds nuw %"struct.std::_Vector_base<float, gmx::Allocator<float, gmx::AlignedAllocationPolicy>>::_Vector_impl_data", ptr %4, i32 0, i32 0
  %6 = load ptr, ptr %5, align 8, !tbaa !22
  %7 = call noundef ptr @_ZNKSt6vectorIfN3gmx9AllocatorIfNS0_23AlignedAllocationPolicyEEEE11_M_data_ptrIfEEPT_S7_(ptr noundef nonnull align 8 dereferenceable(24) %3, ptr noundef %6) #19
  ret ptr %7
}

; Function Attrs: inlinehint mustprogress uwtable
define internal void @_ZN3gmxL23setICellCoordinatesSimdILNS_25ClusterDistanceKernelTypeE1EEEviRKNS_11BasicVectorIfEEiPKfPNS_20NbnxmPairlistCpuWorkE(i32 noundef %0, ptr noundef nonnull align 4 dereferenceable(12) %1, i32 noundef %2, ptr noundef %3, ptr noundef %4) #1 {
  %6 = alloca i32, align 4
  %7 = alloca ptr, align 8
  %8 = alloca i32, align 4
  %9 = alloca ptr, align 8
  %10 = alloca ptr, align 8
  %11 = alloca i32, align 4
  %12 = alloca i32, align 4
  %13 = alloca i32, align 4
  %14 = alloca ptr, align 8
  %15 = alloca i32, align 4
  %16 = alloca i32, align 4
  %17 = alloca i32, align 4
  %18 = alloca i32, align 4
  %19 = alloca %"class.gmx::SimdFloat", align 32
  store i32 %0, ptr %6, align 4, !tbaa !4
  store ptr %1, ptr %7, align 8, !tbaa !8
  store i32 %2, ptr %8, align 4, !tbaa !4
  store ptr %3, ptr %9, align 8, !tbaa !11
  store ptr %4, ptr %10, align 8, !tbaa !13
  call void @llvm.lifetime.start.p0(i64 4, ptr %11) #19
  store i32 4, ptr %11, align 4, !tbaa !4
  call void @llvm.lifetime.start.p0(i64 4, ptr %12) #19
  store i32 8, ptr %12, align 4, !tbaa !4
  call void @llvm.lifetime.start.p0(i64 4, ptr %13) #19
  store i32 8, ptr %13, align 4, !tbaa !4
  call void @llvm.lifetime.start.p0(i64 8, ptr %14) #19
  %20 = load ptr, ptr %10, align 8, !tbaa !13
  %21 = getelementptr inbounds nuw %"struct.gmx::NbnxmPairlistCpuWork", ptr %20, i32 0, i32 1
  %22 = getelementptr inbounds nuw %"struct.gmx::NbnxmPairlistCpuWork::IClusterData", ptr %21, i32 0, i32 2
  %23 = call noundef ptr @_ZNSt6vectorIfN3gmx9AllocatorIfNS0_23AlignedAllocationPolicyEEEE4dataEv(ptr noundef nonnull align 8 dereferenceable(24) %22) #19
  store ptr %23, ptr %14, align 8, !tbaa !11
  call void @llvm.lifetime.start.p0(i64 4, ptr %15) #19
  %24 = load i32, ptr %6, align 4, !tbaa !4
  %25 = call noundef i32 @_ZN3gmxL12xIndexFromCiILNS_25ClusterDistanceKernelTypeE1EEEii(i32 noundef %24)
  store i32 %25, ptr %15, align 4, !tbaa !4
  call void @llvm.lifetime.start.p0(i64 4, ptr %16) #19
  store i32 0, ptr %16, align 4, !tbaa !4
  br label %26

26:                                               ; preds = %64, %5
  %27 = load i32, ptr %16, align 4, !tbaa !4
  %28 = icmp slt i32 %27, 4
  br i1 %28, label %30, label %29

29:                                               ; preds = %26
  store i32 2, ptr %17, align 4
  call void @llvm.lifetime.end.p0(i64 4, ptr %16) #19
  br label %67

30:                                               ; preds = %26
  call void @llvm.lifetime.start.p0(i64 4, ptr %18) #19
  store i32 0, ptr %18, align 4, !tbaa !4
  br label %31

31:                                               ; preds = %60, %30
  %32 = load i32, ptr %18, align 4, !tbaa !4
  %33 = icmp slt i32 %32, 3
  br i1 %33, label %35, label %34

34:                                               ; preds = %31
  store i32 5, ptr %17, align 4
  call void @llvm.lifetime.end.p0(i64 4, ptr %18) #19
  br label %63

35:                                               ; preds = %31
  %36 = load ptr, ptr %14, align 8, !tbaa !11
  %37 = load i32, ptr %16, align 4, !tbaa !4
  %38 = mul nsw i32 %37, 3
  %39 = load i32, ptr %18, align 4, !tbaa !4
  %40 = add nsw i32 %38, %39
  %41 = mul nsw i32 %40, 8
  %42 = sext i32 %41 to i64
  %43 = getelementptr inbounds float, ptr %36, i64 %42
  %44 = load ptr, ptr %9, align 8, !tbaa !11
  %45 = load i32, ptr %15, align 4, !tbaa !4
  %46 = load i32, ptr %18, align 4, !tbaa !4
  %47 = mul nsw i32 %46, 8
  %48 = add nsw i32 %45, %47
  %49 = load i32, ptr %16, align 4, !tbaa !4
  %50 = add nsw i32 %48, %49
  %51 = sext i32 %50 to i64
  %52 = getelementptr inbounds float, ptr %44, i64 %51
  %53 = load float, ptr %52, align 4, !tbaa !15
  %54 = load ptr, ptr %7, align 8, !tbaa !8
  %55 = load i32, ptr %18, align 4, !tbaa !4
  %56 = call noundef float @_ZNK3gmx11BasicVectorIfEixEi(ptr noundef nonnull align 4 dereferenceable(12) %54, i32 noundef %55)
  %57 = fadd float %53, %56
  call void @_ZN3gmx9SimdFloatC2Ef(ptr noundef nonnull align 32 dereferenceable(32) %19, float noundef %57)
  %58 = getelementptr inbounds nuw %"class.gmx::SimdFloat", ptr %19, i32 0, i32 0
  %59 = load <8 x float>, ptr %58, align 32
  call x86_vectorcallcc void @_ZN3gmxL5storeEPfNS_9SimdFloatE(ptr noundef %43, <8 x float> %59)
  br label %60

60:                                               ; preds = %35
  %61 = load i32, ptr %18, align 4, !tbaa !4
  %62 = add nsw i32 %61, 1
  store i32 %62, ptr %18, align 4, !tbaa !4
  br label %31, !llvm.loop !17

63:                                               ; preds = %34
  br label %64

64:                                               ; preds = %63
  %65 = load i32, ptr %16, align 4, !tbaa !4
  %66 = add nsw i32 %65, 1
  store i32 %66, ptr %16, align 4, !tbaa !4
  br label %26, !llvm.loop !19

67:                                               ; preds = %29
  call void @llvm.lifetime.end.p0(i64 4, ptr %15) #19
  call void @llvm.lifetime.end.p0(i64 8, ptr %14) #19
  call void @llvm.lifetime.end.p0(i64 4, ptr %13) #19
  call void @llvm.lifetime.end.p0(i64 4, ptr %12) #19
  call void @llvm.lifetime.end.p0(i64 4, ptr %11) #19
  ret void
}

; Function Attrs: mustprogress uwtable
define void @_ZN3gmx26setICellCoordinatesSimd4xMEiRKNS_11BasicVectorIfEEiPKfPNS_20NbnxmPairlistCpuWorkE(i32 noundef %0, ptr noundef nonnull align 4 dereferenceable(12) %1, i32 noundef %2, ptr noundef %3, ptr noundef %4) #0 {
  %6 = alloca i32, align 4
  %7 = alloca ptr, align 8
  %8 = alloca i32, align 4
  %9 = alloca ptr, align 8
  %10 = alloca ptr, align 8
  store i32 %0, ptr %6, align 4, !tbaa !4
  store ptr %1, ptr %7, align 8, !tbaa !8
  store i32 %2, ptr %8, align 4, !tbaa !4
  store ptr %3, ptr %9, align 8, !tbaa !11
  store ptr %4, ptr %10, align 8, !tbaa !13
  %11 = load i32, ptr %6, align 4, !tbaa !4
  %12 = load ptr, ptr %7, align 8, !tbaa !8
  %13 = load i32, ptr %8, align 4, !tbaa !4
  %14 = load ptr, ptr %9, align 8, !tbaa !11
  %15 = load ptr, ptr %10, align 8, !tbaa !13
  call void @_ZN3gmxL23setICellCoordinatesSimdILNS_25ClusterDistanceKernelTypeE1EEEviRKNS_11BasicVectorIfEEiPKfPNS_20NbnxmPairlistCpuWorkE(i32 noundef %11, ptr noundef nonnull align 4 dereferenceable(12) %12, i32 noundef %13, ptr noundef %14, ptr noundef %15)
  ret void
}