; Function Attrs: mustprogress nofree norecurse nosync nounwind memory(write, argmem: readwrite, inaccessiblemem: none) uwtable
define void @_ZN3gmx26setICellCoordinatesSimd4xMEiRKNS_11BasicVectorIfEEiPKfPNS_20NbnxmPairlistCpuWorkE(i32 noundef %0, ptr noundef nonnull readonly align 4 captures(none) dereferenceable(12) %1, i32 noundef %2, ptr noundef readonly captures(none) %3, ptr noundef readonly captures(none) %4) local_unnamed_addr #0 {
  %6 = getelementptr i8, ptr %4, i64 112
  %.val = load ptr, ptr %6, align 8, !tbaa !4
  %7 = ashr i32 %0, 1
  %8 = mul nsw i32 %7, 24
  %9 = shl i32 %0, 2
  %10 = and i32 %9, 4
  %11 = or disjoint i32 %8, %10
  br label %.preheader.i

.preheader.i:                                     ; preds = %15, %5
  %indvars.iv4.i = phi i64 [ 0, %5 ], [ %indvars.iv.next5.i, %15 ]
  %12 = mul nuw nsw i64 %indvars.iv4.i, 3
  %13 = trunc i64 %indvars.iv4.i to i32
  %14 = add i32 %11, %13
  br label %16

15:                                               ; preds = %16
  %indvars.iv.next5.i = add nuw nsw i64 %indvars.iv4.i, 1
  %exitcond8.not.i = icmp eq i64 %indvars.iv.next5.i, 4
  br i1 %exitcond8.not.i, label %_ZN3gmxL23setICellCoordinatesSimdILNS_25ClusterDistanceKernelTypeE1EEEviRKNS_11BasicVectorIfEEiPKfPNS_20NbnxmPairlistCpuWorkE.exit, label %.preheader.i, !llvm.loop !10

16:                                               ; preds = %16, %.preheader.i
  %indvars.iv.i = phi i64 [ 0, %.preheader.i ], [ %indvars.iv.next.i, %16 ]
  %17 = add nuw nsw i64 %indvars.iv.i, %12
  %.idx.i = shl nuw nsw i64 %17, 5
  %18 = getelementptr inbounds nuw i8, ptr %.val, i64 %.idx.i
  %indvars.iv.tr.i = trunc i64 %indvars.iv.i to i32
  %19 = shl i32 %indvars.iv.tr.i, 3
  %.reass.i = add i32 %14, %19
  %20 = sext i32 %.reass.i to i64
  %21 = getelementptr inbounds float, ptr %3, i64 %20
  %22 = load float, ptr %21, align 4, !tbaa !12
  %23 = getelementptr inbounds nuw [3 x float], ptr %1, i64 0, i64 %indvars.iv.i
  %24 = load float, ptr %23, align 4, !tbaa !12
  %25 = fadd float %22, %24
  %26 = insertelement <8 x float> poison, float %25, i64 0
  %27 = shufflevector <8 x float> %26, <8 x float> poison, <8 x i32> zeroinitializer
  store <8 x float> %27, ptr %18, align 32, !tbaa !14
  %indvars.iv.next.i = add nuw nsw i64 %indvars.iv.i, 1
  %exitcond.not.i = icmp eq i64 %indvars.iv.next.i, 3
  br i1 %exitcond.not.i, label %15, label %16, !llvm.loop !15

_ZN3gmxL23setICellCoordinatesSimdILNS_25ClusterDistanceKernelTypeE1EEEviRKNS_11BasicVectorIfEEiPKfPNS_20NbnxmPairlistCpuWorkE.exit: ; preds = %15
  ret void
}